target datalayout = "e-m:e-p270:32:32-p271:32:32-p272:64:64-i64:64-i128:128-f80:128-n8:16:32:64-S128"
target triple = "x86_64-pc-linux-gnu"

%"class.std::basic_string_view" = type { i64, ptr }
%"class.std::__cxx11::basic_string" = type { %"struct.std::__cxx11::basic_string<char>::_Alloc_hider", i64, %union.anon }
%"struct.std::__cxx11::basic_string<char>::_Alloc_hider" = type { ptr }
%union.anon = type { i64, [8 x i8] }
%"class.std::allocator.6" = type { i8 }

@_ZTIN3nix5ErrorE = linkonce_odr constant { ptr, ptr, ptr } { ptr getelementptr inbounds (ptr, ptr @_ZTVN10__cxxabiv120__si_class_type_infoE, i64 2), ptr @_ZTSN3nix5ErrorE, ptr @_ZTIN3nix9BaseErrorE }, comdat, align 8
@.str.5 = private unnamed_addr constant [18 x i8] c"protocol mismatch\00", align 1

; Function Attrs: mustprogress nounwind uwtable
define linkonce_odr void @_ZNSt17basic_string_viewIcSt11char_traitsIcEEC2EPKcm(ptr noundef nonnull align 8 dereferenceable(16) %0, ptr noundef %1, i64 noundef %2) unnamed_addr #2 comdat align 2 {
  %4 = alloca ptr, align 8
  %5 = alloca ptr, align 8
  %6 = alloca i64, align 8
  store ptr %0, ptr %4, align 8
  store ptr %1, ptr %5, align 8
  store i64 %2, ptr %6, align 8
  %7 = load ptr, ptr %4, align 8
  %8 = getelementptr inbounds %"class.std::basic_string_view", ptr %7, i32 0, i32 0
  %9 = load i64, ptr %6, align 8
  store i64 %9, ptr %8, align 8
  %10 = getelementptr inbounds %"class.std::basic_string_view", ptr %7, i32 0, i32 1
  %11 = load ptr, ptr %5, align 8
  store ptr %11, ptr %10, align 8
  ret void
}

; Function Attrs: mustprogress uwtable
define linkonce_odr noundef nonnull align 8 dereferenceable(8) ptr @_ZN3nixlsERNS_4SinkEm(ptr noundef nonnull align 8 dereferenceable(8) %0, i64 noundef %1) #5 comdat {
  %3 = alloca ptr, align 8
  %4 = alloca i64, align 8
  %5 = alloca [8 x i8], align 1
  %6 = alloca %"class.std::basic_string_view", align 8
  store ptr %0, ptr %3, align 8
  store i64 %1, ptr %4, align 8
  %7 = load i64, ptr %4, align 8
  %8 = and i64 %7, 255
  %9 = trunc i64 %8 to i8
  %10 = getelementptr inbounds [8 x i8], ptr %5, i64 0, i64 0
  store i8 %9, ptr %10, align 1
  %11 = load i64, ptr %4, align 8
  %12 = lshr i64 %11, 8
  %13 = and i64 %12, 255
  %14 = trunc i64 %13 to i8
  %15 = getelementptr inbounds [8 x i8], ptr %5, i64 0, i64 1
  store i8 %14, ptr %15, align 1
  %16 = load i64, ptr %4, align 8
  %17 = lshr i64 %16, 16
  %18 = and i64 %17, 255
  %19 = trunc i64 %18 to i8
  %20 = getelementptr inbounds [8 x i8], ptr %5, i64 0, i64 2
  store i8 %19, ptr %20, align 1
  %21 = load i64, ptr %4, align 8
  %22 = lshr i64 %21, 24
  %23 = and i64 %22, 255
  %24 = trunc i64 %23 to i8
  %25 = getelementptr inbounds [8 x i8], ptr %5, i64 0, i64 3
  store i8 %24, ptr %25, align 1
  %26 = load i64, ptr %4, align 8
  %27 = lshr i64 %26, 32
  %28 = and i64 %27, 255
  %29 = trunc i64 %28 to i8
  %30 = getelementptr inbounds [8 x i8], ptr %5, i64 0, i64 4
  store i8 %29, ptr %30, align 1
  %31 = load i64, ptr %4, align 8
  %32 = lshr i64 %31, 40
  %33 = and i64 %32, 255
  %34 = trunc i64 %33 to i8
  %35 = getelementptr inbounds [8 x i8], ptr %5, i64 0, i64 5
  store i8 %34, ptr %35, align 1
  %36 = load i64, ptr %4, align 8
  %37 = lshr i64 %36, 48
  %38 = and i64 %37, 255
  %39 = trunc i64 %38 to i8
  %40 = getelementptr inbounds [8 x i8], ptr %5, i64 0, i64 6
  store i8 %39, ptr %40, align 1
  %41 = load i64, ptr %4, align 8
  %42 = lshr i64 %41, 56
  %43 = trunc i64 %42 to i8
  %44 = zext i8 %43 to i32
  %45 = and i32 %44, 255
  %46 = trunc i32 %45 to i8
  %47 = getelementptr inbounds [8 x i8], ptr %5, i64 0, i64 7
  store i8 %46, ptr %47, align 1
  %48 = load ptr, ptr %3, align 8
  %49 = getelementptr inbounds [8 x i8], ptr %5, i64 0, i64 0
  call void @_ZNSt17basic_string_viewIcSt11char_traitsIcEEC2EPKcm(ptr noundef nonnull align 8 dereferenceable(16) %6, ptr noundef %49, i64 noundef 8) #1
  %50 = getelementptr inbounds { i64, ptr }, ptr %6, i32 0, i32 0
  %51 = load i64, ptr %50, align 8
  %52 = getelementptr inbounds { i64, ptr }, ptr %6, i32 0, i32 1
  %53 = load ptr, ptr %52, align 8
  %54 = load ptr, ptr %48, align 8
  %55 = getelementptr inbounds ptr, ptr %54, i64 2
  %56 = load ptr, ptr %55, align 8
  call void %56(ptr noundef nonnull align 8 dereferenceable(8) %48, i64 %51, ptr %53)
  %57 = load ptr, ptr %3, align 8
  ret ptr %57
}

; Function Attrs: mustprogress uwtable
define linkonce_odr noundef i32 @_ZN3nix7readIntERNS_6SourceE(ptr noundef nonnull align 8 dereferenceable(8) %0) #5 comdat {
  %2 = alloca ptr, align 8
  store ptr %0, ptr %2, align 8
  %3 = load ptr, ptr %2, align 8
  %4 = call noundef i32 @_ZN3nix7readNumIjEET_RNS_6SourceE(ptr noundef nonnull align 8 dereferenceable(8) %3)
  ret i32 %4
}

; Function Attrs: mustprogress uwtable
define noundef i32 @_ZN3nix10ServeProto21BasicServerConnection9handshakeERNS_12BufferedSinkERNS_6SourceEj(ptr noundef nonnull align 8 dereferenceable(32) %0, ptr noundef nonnull align 8 dereferenceable(8) %1, i32 noundef %2) #5 align 2 personality ptr @__gxx_personality_v0 {
  %4 = alloca ptr, align 8
  %5 = alloca ptr, align 8
  %6 = alloca i32, align 4
  %7 = alloca i32, align 4
  %8 = alloca %"class.std::__cxx11::basic_string", align 8
  %9 = alloca %"class.std::allocator.6", align 1
  %10 = alloca ptr, align 8
  %11 = alloca i32, align 4
  %12 = alloca i1, align 1
  store ptr %0, ptr %4, align 8
  store ptr %1, ptr %5, align 8
  store i32 %2, ptr %6, align 4
  %13 = load ptr, ptr %5, align 8
  %14 = call noundef i32 @_ZN3nix7readIntERNS_6SourceE(ptr noundef nonnull align 8 dereferenceable(8) %13)
  store i32 %14, ptr %7, align 4
  %15 = load i32, ptr %7, align 4
  %16 = icmp ne i32 %15, 957128171
  br i1 %16, label %17, label %33

17:                                               ; preds = %3
  store i1 true, ptr %12, align 1
  %18 = call ptr @__cxa_allocate_exception(i64 376) #1
  call void @_ZNSaIcEC1Ev(ptr noundef nonnull align 1 dereferenceable(1) %9) #1
  invoke void @_ZNSt7__cxx1112basic_stringIcSt11char_traitsIcESaIcEEC2IS3_EEPKcRKS3_(ptr noundef nonnull align 8 dereferenceable(32) %8, ptr noundef @.str.5, ptr noundef nonnull align 1 dereferenceable(1) %9)
          to label %19 unwind label %21

19:                                               ; preds = %17
  invoke void @_ZN3nix5ErrorCI2NS_9BaseErrorEIJEEERKNSt7__cxx1112basic_stringIcSt11char_traitsIcESaIcEEEDpRKT_(ptr noundef nonnull align 8 dereferenceable(376) %18, ptr noundef nonnull align 8 dereferenceable(32) %8)
          to label %20 unwind label %25

20:                                               ; preds = %19
  store i1 false, ptr %12, align 1
  invoke void @__cxa_throw(ptr %18, ptr @_ZTIN3nix5ErrorE, ptr @_ZN3nix5ErrorD2Ev) #16
          to label %51 unwind label %25

21:                                               ; preds = %17
  %22 = landingpad { ptr, i32 }
          cleanup
  %23 = extractvalue { ptr, i32 } %22, 0
  store ptr %23, ptr %10, align 8
  %24 = extractvalue { ptr, i32 } %22, 1
  store i32 %24, ptr %11, align 4
  br label %29

25:                                               ; preds = %20, %19
  %26 = landingpad { ptr, i32 }
          cleanup
  %27 = extractvalue { ptr, i32 } %26, 0
  store ptr %27, ptr %10, align 8
  %28 = extractvalue { ptr, i32 } %26, 1
  store i32 %28, ptr %11, align 4
  call void @_ZNSt7__cxx1112basic_stringIcSt11char_traitsIcESaIcEED2Ev(ptr noundef nonnull align 8 dereferenceable(32) %8) #1
  br label %29

29:                                               ; preds = %25, %21
  call void @_ZNSaIcED1Ev(ptr noundef nonnull align 1 dereferenceable(1) %9) #1
  %30 = load i1, ptr %12, align 1
  br i1 %30, label %31, label %32

31:                                               ; preds = %29
  call void @__cxa_free_exception(ptr %18) #1
  br label %32

32:                                               ; preds = %31, %29
  br label %46

33:                                               ; preds = %3
  %34 = load ptr, ptr %4, align 8
  %35 = load ptr, ptr %34, align 8
  %36 = getelementptr i8, ptr %35, i64 -48
  %37 = load i64, ptr %36, align 8
  %38 = getelementptr inbounds i8, ptr %34, i64 %37
  %39 = call noundef nonnull align 8 dereferenceable(8) ptr @_ZN3nixlsERNS_4SinkEm(ptr noundef nonnull align 8 dereferenceable(8) %38, i64 noundef 1414721227)
  %40 = load i32, ptr %6, align 4
  %41 = zext i32 %40 to i64
  %42 = call noundef nonnull align 8 dereferenceable(8) ptr @_ZN3nixlsERNS_4SinkEm(ptr noundef nonnull align 8 dereferenceable(8) %39, i64 noundef %41)
  %43 = load ptr, ptr %4, align 8
  call void @_ZN3nix12BufferedSink5flushEv(ptr noundef nonnull align 8 dereferenceable(32) %43)
  %44 = load ptr, ptr %5, align 8
  %45 = call noundef i32 @_ZN3nix7readIntERNS_6SourceE(ptr noundef nonnull align 8 dereferenceable(8) %44)
  ret i32 %45

46:                                               ; preds = %32
  %47 = load ptr, ptr %10, align 8
  %48 = load i32, ptr %11, align 4
  %49 = insertvalue { ptr, i32 } poison, ptr %47, 0
  %50 = insertvalue { ptr, i32 } %49, i32 %48, 1
  resume { ptr, i32 } %50

51:                                               ; preds = %20
  unreachable
}