; Function Attrs: mustprogress uwtable
define noundef i32 @_ZN3nix10ServeProto21BasicServerConnection9handshakeERNS_12BufferedSinkERNS_6SourceEj(ptr noundef nonnull align 8 dereferenceable(32) %0, ptr noundef nonnull align 8 dereferenceable(8) %1, i32 noundef %2) local_unnamed_addr #4 align 2 personality ptr @__gxx_personality_v0 {
  %4 = alloca [8 x i8], align 1
  %5 = alloca [8 x i8], align 4
  %6 = alloca %"class.std::__cxx11::basic_string", align 8
  %7 = alloca %"class.std::allocator.6", align 1
  %8 = tail call noundef i32 @_ZN3nix7readNumIjEET_RNS_6SourceE(ptr noundef nonnull align 8 dereferenceable(8) %1)
  %.not = icmp eq i32 %8, 957128171
  br i1 %.not, label %17, label %9

9:                                                ; preds = %3
  %10 = tail call ptr @__cxa_allocate_exception(i64 376) #21
  call void @_ZNSaIcEC1Ev(ptr noundef nonnull align 1 dereferenceable(1) %7) #21
  invoke void @_ZNSt7__cxx1112basic_stringIcSt11char_traitsIcESaIcEEC2IS3_EEPKcRKS3_(ptr noundef nonnull align 8 dereferenceable(32) %6, ptr noundef nonnull @.str.5, ptr noundef nonnull align 1 dereferenceable(1) %7)
          to label %11 unwind label %.thread

11:                                               ; preds = %9
  invoke void @_ZN3nix5ErrorCI2NS_9BaseErrorEIJEEERKNSt7__cxx1112basic_stringIcSt11char_traitsIcESaIcEEEDpRKT_(ptr noundef nonnull align 8 dereferenceable(376) %10, ptr noundef nonnull align 8 dereferenceable(32) %6)
          to label %12 unwind label %14

12:                                               ; preds = %11
  invoke void @__cxa_throw(ptr nonnull %10, ptr nonnull @_ZTIN3nix5ErrorE, ptr nonnull @_ZN3nix5ErrorD2Ev) #22
          to label %42 unwind label %14

.thread:                                          ; preds = %9
  %13 = landingpad { ptr, i32 }
          cleanup
  call void @_ZNSaIcED1Ev(ptr noundef nonnull align 1 dereferenceable(1) %7) #21
  br label %16

14:                                               ; preds = %11, %12
  %.0 = phi i1 [ false, %12 ], [ true, %11 ]
  %15 = landingpad { ptr, i32 }
          cleanup
  call void @_ZNSt7__cxx1112basic_stringIcSt11char_traitsIcESaIcEED2Ev(ptr noundef nonnull align 8 dereferenceable(32) %6) #21
  call void @_ZNSaIcED1Ev(ptr noundef nonnull align 1 dereferenceable(1) %7) #21
  br i1 %.0, label %16, label %41

16:                                               ; preds = %.thread, %14
  %.pn14 = phi { ptr, i32 } [ %13, %.thread ], [ %15, %14 ]
  call void @__cxa_free_exception(ptr %10) #21
  br label %41

17:                                               ; preds = %3
  %18 = load ptr, ptr %0, align 8
  %19 = getelementptr i8, ptr %18, i64 -48
  %20 = load i64, ptr %19, align 8
  %21 = getelementptr inbounds i8, ptr %0, i64 %20
  call void @llvm.lifetime.start.p0(i64 8, ptr nonnull %5)
  store <4 x i8> <i8 -53, i8 -18, i8 82, i8 84>, ptr %5, align 4
  %22 = getelementptr inbounds i8, ptr %5, i64 4
  store i32 0, ptr %22, align 4
  %23 = load ptr, ptr %21, align 8
  %24 = getelementptr inbounds i8, ptr %23, i64 16
  %25 = load ptr, ptr %24, align 8
  call void %25(ptr noundef nonnull align 8 dereferenceable(8) %21, i64 8, ptr nonnull %5)
  call void @llvm.lifetime.end.p0(i64 8, ptr nonnull %5)
  call void @llvm.lifetime.start.p0(i64 8, ptr nonnull %4)
  %26 = trunc i32 %2 to i8
  store i8 %26, ptr %4, align 1
  %27 = lshr i32 %2, 8
  %28 = trunc i32 %27 to i8
  %29 = getelementptr inbounds i8, ptr %4, i64 1
  store i8 %28, ptr %29, align 1
  %30 = lshr i32 %2, 16
  %31 = trunc i32 %30 to i8
  %32 = getelementptr inbounds i8, ptr %4, i64 2
  store i8 %31, ptr %32, align 1
  %33 = lshr i32 %2, 24
  %34 = trunc i32 %33 to i8
  %35 = getelementptr inbounds i8, ptr %4, i64 3
  store i8 %34, ptr %35, align 1
  %36 = getelementptr inbounds i8, ptr %4, i64 4
  store i32 0, ptr %36, align 1
  %37 = load ptr, ptr %21, align 8
  %38 = getelementptr inbounds i8, ptr %37, i64 16
  %39 = load ptr, ptr %38, align 8
  call void %39(ptr noundef nonnull align 8 dereferenceable(8) %21, i64 8, ptr nonnull %4)
  call void @llvm.lifetime.end.p0(i64 8, ptr nonnull %4)
  call void @_ZN3nix12BufferedSink5flushEv(ptr noundef nonnull align 8 dereferenceable(32) %0)
  %40 = call noundef i32 @_ZN3nix7readNumIjEET_RNS_6SourceE(ptr noundef nonnull align 8 dereferenceable(8) %1)
  ret i32 %40

41:                                               ; preds = %14, %16
  %.pn13 = phi { ptr, i32 } [ %15, %14 ], [ %.pn14, %16 ]
  resume { ptr, i32 } %.pn13

42:                                               ; preds = %12
  unreachable
}